
/home/ss1/Projects/example-pico-project-rp2350/build/pico2-clang-debug/pico-sdk/src/rp2350/boot_stage2/bs2_default.elf:	file format elf32-littlearm

Sections:
Idx Name            Size     VMA      Type
  0                 00000000 00000000 
  1 .text           000000a4 00000000 TEXT
  2 .ARM.attributes 0000002e 00000000 
  3 .debug_info     000001ad 00000000 DEBUG
  4 .debug_abbrev   00000021 00000000 DEBUG
  5 .debug_aranges  00000020 00000000 DEBUG
  6 .debug_line     000000a7 00000000 DEBUG
  7 .debug_line_str 000001a8 00000000 DEBUG
  8 .comment        00000013 00000000 
  9 .symtab         000000c0 00000000 
 10 .shstrtab       0000007f 00000000 
 11 .strtab         00000080 00000000 

/home/ss1/Projects/example-pico-project-rp2350/build/pico2-clang-debug/pico-sdk/src/rp2350/boot_stage2/bs2_default.elf:	file format elf32-littlearm

Disassembly of section .text:

00000000 <_start>:
       0: b500         	push	{lr}

00000002 <_pad_config>:
       2: 4b24         	ldr	r3, [pc, #0x90]         @ 0x94 <literals>
       4: 2021         	movs	r0, #0x21
       6: 6058         	str	r0, [r3, #0x4]
       8: f513 5340    	adds.w	r3, r3, #0x3000
       c: 2002         	movs	r0, #0x2
       e: 6098         	str	r0, [r3, #0x8]
      10: 60d8         	str	r0, [r3, #0xc]
      12: 6118         	str	r0, [r3, #0x10]
      14: 6158         	str	r0, [r3, #0x14]
      16: f513 230d    	adds.w	r3, r3, #0x8d000

0000001a <program_sregs>:
      1a: 491f         	ldr	r1, [pc, #0x7c]         @ 0x98 <literals+0x4>
      1c: 6019         	str	r1, [r3]
      1e: 6818         	ldr	r0, [r3]
      20: f010 0f02    	tst.w	r0, #0x2
      24: d1fb         	bne	0x1e <program_sregs+0x4> @ imm = #-0xa
      26: 2035         	movs	r0, #0x35
      28: f000 f82c    	bl	0x84 <read_flash_sreg>  @ imm = #0x58
      2c: 2802         	cmp	r0, #0x2
      2e: d014         	beq	0x5a <_skip_sreg_programming> @ imm = #0x28
      30: 2006         	movs	r0, #0x6
      32: 6058         	str	r0, [r3, #0x4]
      34: f000 f822    	bl	0x7c <wait_qmi_ready>   @ imm = #0x44
      38: 6898         	ldr	r0, [r3, #0x8]
      3a: 2001         	movs	r0, #0x1
      3c: 6058         	str	r0, [r3, #0x4]
      3e: 2000         	movs	r0, #0x0
      40: 6058         	str	r0, [r3, #0x4]
      42: 2002         	movs	r0, #0x2
      44: 6058         	str	r0, [r3, #0x4]
      46: f000 f819    	bl	0x7c <wait_qmi_ready>   @ imm = #0x32
      4a: 6898         	ldr	r0, [r3, #0x8]
      4c: 6898         	ldr	r0, [r3, #0x8]
      4e: 6898         	ldr	r0, [r3, #0x8]
      50: 2005         	movs	r0, #0x5
      52: f000 f817    	bl	0x84 <read_flash_sreg>  @ imm = #0x2e
      56: 0840         	lsrs	r0, r0, #0x1
      58: d2fa         	bhs	0x50 <program_sregs+0x36> @ imm = #-0xc

0000005a <_skip_sreg_programming>:
      5a: f031 0101    	bics	r1, r1, #0x1
      5e: 6019         	str	r1, [r3]

00000060 <_qmi_config>:
      60: 480e         	ldr	r0, [pc, #0x38]         @ 0x9c <literals+0x8>
      62: 60d8         	str	r0, [r3, #0xc]
      64: f24a 00eb    	movw	r0, #0xa0eb
      68: 6158         	str	r0, [r3, #0x14]
      6a: 480d         	ldr	r0, [pc, #0x34]         @ 0xa0 <literals+0xc>
      6c: 6118         	str	r0, [r3, #0x10]
      6e: f04f 51a0    	mov.w	r1, #0x14000000
      72: 7809         	ldrb	r1, [r1]
      74: f420 5080    	bic	r0, r0, #0x1000
      78: 6118         	str	r0, [r3, #0x10]
      7a: bd00         	pop	{pc}

0000007c <wait_qmi_ready>:
      7c: 6818         	ldr	r0, [r3]
      7e: 0880         	lsrs	r0, r0, #0x2
      80: d2fc         	bhs	0x7c <wait_qmi_ready>   @ imm = #-0x8
      82: 4770         	bx	lr

00000084 <read_flash_sreg>:
      84: b500         	push	{lr}
      86: 6058         	str	r0, [r3, #0x4]
      88: 6058         	str	r0, [r3, #0x4]
      8a: f7ff fff7    	bl	0x7c <wait_qmi_ready>   @ imm = #-0x12
      8e: 6898         	ldr	r0, [r3, #0x8]
      90: 6898         	ldr	r0, [r3, #0x8]
      92: bd00         	pop	{pc}

00000094 <literals>:
      94: 00 00 04 40  	.word	0x40040000
      98: 41 00 80 07  	.word	0x07800041
      9c: 02 02 00 40  	.word	0x40000202
      a0: a8 92 04 00  	.word	0x000492a8
